(dp1
S'sg_version_data'
p2
(dp3
S'code'
p4
S'v0.5.0'
p5
sS'description'
p6
S'Rebranded to ShotGrid'
p7
sS'tags'
p8
(lp9
sS'sg_payload'
p10
(dp11
S'name'
p12
S'tk-multi-setframerange_v0.5.0.zip'
p13
sS'url'
p14
S'https://s3-proxy.shotgunstudio.com/d18c13bf0e59a9a82f18be518a1b6b508bcbd774/95550a020b2a776841e84f566386c6bd72ddaf25/tk-multi-setframerange_v0.5.0.zip?response-content-disposition=filename%3D%22tk-multi-setframerange_v0.5.0.zip%22&x-amz-meta-user-id=26788&x-amz-meta-user-type=ApiUser&X-Amz-Algorithm=AWS4-HMAC-SHA256&X-Amz-Credential=ASIAYJG6Z4JI275PH3IH%2F20210910%2Fus-west-2%2Fs3%2Faws4_request&X-Amz-Date=20210910T161319Z&X-Amz-Expires=900&X-Amz-SignedHeaders=host&X-Amz-Security-Token=FwoGZXIvYXdzEKH%2F%2F%2F%2F%2F%2F%2F%2F%2F%2FwEaDPMsr2OAD6u6sURDYyKvAU37cG4iR7o9kCYdXkLID4nU%2FWa1HhfBNLbHNv09DKU6gNvsMOvambxw8m22y6C91Z068TfwV6l%2BHsskCmp54dtB5DhQZyyzdNBEMVrupGZo4wj1xqBNm6%2B3EKiAo42glNEQHWYLhB9BAwqSFhuno7aXrTnUYBkg5XyIwSDVx2bXPFFMr5N9SVl%2FpxMFs6jtIBPxBBwhLM2Azmxc12THRNfAOXuXwWGcls1xWFMx9Hco7fntiQYyLWOAshcG%2FJ4y39J2j5dQbpFKEqAwMD9E2C9XUDtFxS3CpOuwaIkBvHbxuw8Vlw%3D%3D&X-Amz-Signature=5433cf3adfdbce681d1ba46ecfdd5a3d060f3029f121c6799bf5ee3240aea0e0'
p15
sS'content_type'
p16
S'application/zip'
p17
sS'type'
p18
S'Attachment'
p19
sS'id'
p20
I25622
sS'link_type'
p21
S'upload'
p22
ssS'sg_status_list'
p23
S'prod'
p24
sS'sg_detailed_release_notes'
p25
(dp26
S'name'
p27
S'v0.5.0'
p28
sS'url'
p29
S'https://support.shotgunsoftware.com/hc/en-us/articles/219033038#v0.5.0'
p30
sS'content_type'
p31
NsS'type'
p32
S'Attachment'
p33
sS'id'
p34
I25621
sS'link_type'
p35
S'web'
p36
ssS'sg_documentation'
p37
(dp38
S'name'
p39
S'Documentation'
p40
sS'url'
p41
S'https://support.shotgunsoftware.com/hc/en-us/articles/219033038'
p42
sS'content_type'
p43
NsS'type'
p44
S'Attachment'
p45
sS'id'
p46
I25620
sS'link_type'
p47
S'web'
p48
ssS'type'
p49
S'CustomNonProjectEntity05'
p50
sS'id'
p51
I4017
ssS'sg_bundle_data'
p52
(dp53
S'sg_status_list'
p54
S'depl'
p55
sS'type'
p56
S'CustomNonProjectEntity02'
p57
sS'id'
p58
I39
sS'sg_system_name'
p59
S'tk-multi-setframerange'
p60
sS'sg_deprecation_message'
p61
Nss.